target datalayout = "e-m:e-p270:32:32-p271:32:32-p272:64:64-i64:64-i128:128-f80:128-n8:16:32:64-S128"
target triple = "x86_64-pc-linux-gnu"

%struct.redisServer = type { i32, i64, ptr, ptr, ptr, i32, i32, i32, i32, i32, ptr, ptr, ptr, ptr, ptr, i32, i32, i32, i32, i64, i32, i32, i32, i32, ptr, i32, i32, [41 x i8], i32, i64, i32, i32, i32, ptr, ptr, i32, i32, i64, ptr, ptr, ptr, ptr, [2 x i32], i32, i32, i32, i32, i32, i32, [16 x ptr], i32, ptr, ptr, i32, [8 x %struct.connListener], i32, %struct.connListener, ptr, ptr, ptr, ptr, ptr, ptr, ptr, ptr, ptr, ptr, i32, ptr, i32, ptr, [3 x %struct.pause_event], [256 x i8], ptr, i64, i32, i32, [128 x i32], i32, i32, i64, i32, i32, i32, i32, i32, i64, i64, i64, i64, i64, i64, i64, i64, i64, i64, double, i64, i64, i64, i64, i64, i64, i64, i64, i64, i64, i64, i64, i64, i64, i64, i64, i64, i64, i64, i64, i64, double, i64, i64, i64, i64, i64, ptr, i64, i64, i64, %struct.malloc_stats, i64, i64, i64, i64, i64, i64, i64, i64, i64, i64, i64, i64, double, [4 x i64], i64, i64, i64, i64, [128 x i64], [128 x i64], i64, i64, [7 x %struct.anon], i64, i64, i64, i64, i64, i64, [4 x %struct.durationStats], i32, i32, i32, i32, i32, i32, i32, i32, i32, i32, i32, i32, i64, i32, i32, i32, i32, i64, i64, i32, i32, i32, i32, i32, ptr, [3 x %struct.clientBufferLimitsConfig], i32, i32, i32, ptr, i32, i32, i32, i32, i32, i32, ptr, ptr, i32, i32, i64, i64, i64, i64, i64, i32, i32, ptr, i32, i32, i64, i64, i64, i64, i64, i32, i32, i64, i32, i32, i32, i32, i32, i32, i32, i32, ptr, i32, i64, i64, i64, i64, i32, ptr, i32, ptr, i32, i32, i32, i64, i64, i64, i64, i32, i32, i32, i32, i32, i32, ptr, i32, i32, ptr, i32, i32, i32, [2 x i32], i32, %struct.redisOpArray, i32, ptr, i32, ptr, i32, i32, i32, i32, i32, i32, i32, [41 x i8], [41 x i8], i64, i64, i64, i64, i32, i32, ptr, i64, i64, %struct.replDataBuf, i64, i64, i32, i32, i32, i32, i32, i32, i32, i32, i32, i64, ptr, i64, ptr, ptr, ptr, i32, i32, ptr, ptr, i32, i32, i32, i64, i64, i64, i64, ptr, ptr, i32, ptr, i64, i32, i32, i32, i64, i32, i32, i32, i32, ptr, i32, i32, [41 x i8], i64, i32, ptr, i32, i32, i64, i64, i32, i32, i32, i32, i32, i64, [3 x i32], i32, i32, i32, [10 x i32], ptr, ptr, i32, i64, ptr, ptr, i32, i32, i32, i32, i64, i64, i64, i64, i64, i64, i64, i64, i64, i64, i32, i32, i64, i64, i32, i64, i64, i64, i64, i64, ptr, ptr, i32, ptr, i32, i32, i32, i32, i64, i64, ptr, ptr, i32, i32, i32, i32, i32, ptr, ptr, ptr, i32, i32, i32, i32, i32, i32, i32, i64, i32, i32, i64, i32, i32, i32, i32, i32, i32, i32, i64, ptr, ptr, i64, ptr, i32, %struct.aclInfo, i32, i64, i32, i32, i32, %struct.redisTLSContextConfig, ptr, ptr, ptr, ptr, ptr, i64, i32, ptr, i32, i32, i32, i64, i32, ptr }
%struct.connListener = type { [16 x i32], i32, ptr, i32, i32, ptr, ptr }
%struct.pause_event = type { i32, i64 }
%struct.malloc_stats = type { i64, i64, i64, i64, i64, i64, i64, i64, i64, i64, i64 }
%struct.anon = type { i64, i64, [16 x i64], i32 }
%struct.durationStats = type { i64, i64, i64 }
%struct.clientBufferLimitsConfig = type { i64, i64, i64 }
%struct.redisOpArray = type { ptr, i32, i32 }
%struct.replDataBuf = type { ptr, i64, i64, i64, i64 }
%struct.aclInfo = type { i64, i64, i64, i64 }
%struct.redisTLSContextConfig = type { ptr, ptr, ptr, ptr, ptr, ptr, ptr, ptr, ptr, ptr, ptr, ptr, i32, i32, i32, i32 }
%struct.client = type { i64, i64, ptr, i8, i8, i8, i8, i32, ptr, ptr, ptr, ptr, ptr, i64, i64, i32, ptr, i32, i32, ptr, i64, ptr, ptr, ptr, ptr, ptr, i32, i32, i64, ptr, i64, ptr, i64, i64, i64, i32, ptr, i64, i64, i32, i32, i32, i32, i64, i64, ptr, i64, i64, i64, i64, i64, i64, i64, i64, [41 x i8], i32, ptr, i32, i32, i64, %struct.multiState, %struct.blockingState, i64, ptr, ptr, ptr, ptr, ptr, ptr, ptr, ptr, ptr, ptr, ptr, ptr, ptr, ptr, i64, ptr, i64, i32, ptr, ptr, ptr, i64, %struct.listNode, i64, i64, i32, i64, ptr }
%struct.multiState = type { ptr, i32, i32, i32, i64, i32 }
%struct.blockingState = type { i32, i64, i32, ptr, i32, i32, i64, ptr, ptr, i64 }
%struct.listNode = type { ptr, ptr, ptr }
%struct.redisDb = type { ptr, ptr, ptr, ptr, ptr, ptr, ptr, i32, i64, i64, ptr }
%struct.redisObject = type { i32, i32, ptr }

@server = external global %struct.redisServer, align 8
@.str.10 = private unnamed_addr constant [38 x i8] c"increment or decrement would overflow\00", align 1
@.str.11 = private unnamed_addr constant [7 x i8] c"incrby\00", align 1

; Function Attrs: nounwind uwtable
define dso_local void @incrDecrCommand(ptr noundef %0, i64 noundef %1) #0 {
  %3 = alloca ptr, align 8
  %4 = alloca i64, align 8
  %5 = alloca i64, align 8
  %6 = alloca i64, align 8
  %7 = alloca ptr, align 8
  %8 = alloca ptr, align 8
  %9 = alloca ptr, align 8
  %10 = alloca i32, align 4
  store ptr %0, ptr %3, align 8, !tbaa !5
  store i64 %1, ptr %4, align 8, !tbaa !14
  call void @llvm.lifetime.start.p0(i64 8, ptr %5) #10
  call void @llvm.lifetime.start.p0(i64 8, ptr %6) #10
  call void @llvm.lifetime.start.p0(i64 8, ptr %7) #10
  call void @llvm.lifetime.start.p0(i64 8, ptr %8) #10
  call void @llvm.lifetime.start.p0(i64 8, ptr %9) #10
  %11 = load ptr, ptr %3, align 8, !tbaa !5
  %12 = getelementptr inbounds nuw %struct.client, ptr %11, i32 0, i32 8
  %13 = load ptr, ptr %12, align 8, !tbaa !18
  %14 = load ptr, ptr %3, align 8, !tbaa !5
  %15 = getelementptr inbounds nuw %struct.client, ptr %14, i32 0, i32 16
  %16 = load ptr, ptr %15, align 8, !tbaa !63
  %17 = getelementptr inbounds ptr, ptr %16, i64 1
  %18 = load ptr, ptr %17, align 8, !tbaa !12
  %19 = call ptr @lookupKeyWriteWithDictEntry(ptr noundef %13, ptr noundef %18, ptr noundef %9)
  store ptr %19, ptr %7, align 8, !tbaa !12
  %20 = load ptr, ptr %3, align 8, !tbaa !5
  %21 = load ptr, ptr %7, align 8, !tbaa !12
  %22 = call i32 @checkType(ptr noundef %20, ptr noundef %21, i32 noundef 0)
  %23 = icmp ne i32 %22, 0
  br i1 %23, label %24, label %25

24:                                               ; preds = %2
  store i32 1, ptr %10, align 4
  br label %143

25:                                               ; preds = %2
  %26 = load ptr, ptr %3, align 8, !tbaa !5
  %27 = load ptr, ptr %7, align 8, !tbaa !12
  %28 = call i32 @getLongLongFromObjectOrReply(ptr noundef %26, ptr noundef %27, ptr noundef %5, ptr noundef null)
  %29 = icmp ne i32 %28, 0
  br i1 %29, label %30, label %31

30:                                               ; preds = %25
  store i32 1, ptr %10, align 4
  br label %143

31:                                               ; preds = %25
  %32 = load i64, ptr %5, align 8, !tbaa !14
  store i64 %32, ptr %6, align 8, !tbaa !14
  %33 = load i64, ptr %4, align 8, !tbaa !14
  %34 = icmp slt i64 %33, 0
  br i1 %34, label %35, label %43

35:                                               ; preds = %31
  %36 = load i64, ptr %6, align 8, !tbaa !14
  %37 = icmp slt i64 %36, 0
  br i1 %37, label %38, label %43

38:                                               ; preds = %35
  %39 = load i64, ptr %4, align 8, !tbaa !14
  %40 = load i64, ptr %6, align 8, !tbaa !14
  %41 = sub nsw i64 -9223372036854775808, %40
  %42 = icmp slt i64 %39, %41
  br i1 %42, label %54, label %43

43:                                               ; preds = %38, %35, %31
  %44 = load i64, ptr %4, align 8, !tbaa !14
  %45 = icmp sgt i64 %44, 0
  br i1 %45, label %46, label %56

46:                                               ; preds = %43
  %47 = load i64, ptr %6, align 8, !tbaa !14
  %48 = icmp sgt i64 %47, 0
  br i1 %48, label %49, label %56

49:                                               ; preds = %46
  %50 = load i64, ptr %4, align 8, !tbaa !14
  %51 = load i64, ptr %6, align 8, !tbaa !14
  %52 = sub nsw i64 9223372036854775807, %51
  %53 = icmp sgt i64 %50, %52
  br i1 %53, label %54, label %56

54:                                               ; preds = %49, %38
  %55 = load ptr, ptr %3, align 8, !tbaa !5
  call void @addReplyError(ptr noundef %55, ptr noundef @.str.10)
  store i32 1, ptr %10, align 4
  br label %143

56:                                               ; preds = %49, %46, %43
  %57 = load i64, ptr %4, align 8, !tbaa !14
  %58 = load i64, ptr %5, align 8, !tbaa !14
  %59 = add nsw i64 %58, %57
  store i64 %59, ptr %5, align 8, !tbaa !14
  %60 = load ptr, ptr %7, align 8, !tbaa !12
  %61 = icmp ne ptr %60, null
  br i1 %61, label %62, label %91

62:                                               ; preds = %56
  %63 = load ptr, ptr %7, align 8, !tbaa !12
  %64 = getelementptr inbounds nuw %struct.redisObject, ptr %63, i32 0, i32 1
  %65 = load i32, ptr %64, align 4, !tbaa !91
  %66 = icmp eq i32 %65, 1
  br i1 %66, label %67, label %91

67:                                               ; preds = %62
  %68 = load ptr, ptr %7, align 8, !tbaa !12
  %69 = load i32, ptr %68, align 8
  %70 = lshr i32 %69, 4
  %71 = and i32 %70, 15
  %72 = icmp eq i32 %71, 1
  br i1 %72, label %73, label %91

73:                                               ; preds = %67
  %74 = load i64, ptr %5, align 8, !tbaa !14
  %75 = icmp slt i64 %74, 0
  br i1 %75, label %79, label %76

76:                                               ; preds = %73
  %77 = load i64, ptr %5, align 8, !tbaa !14
  %78 = icmp sge i64 %77, 10000
  br i1 %78, label %79, label %91

79:                                               ; preds = %76, %73
  %80 = load i64, ptr %5, align 8, !tbaa !14
  %81 = icmp sge i64 %80, -9223372036854775808
  br i1 %81, label %82, label %91

82:                                               ; preds = %79
  %83 = load i64, ptr %5, align 8, !tbaa !14
  %84 = icmp sle i64 %83, 9223372036854775807
  br i1 %84, label %85, label %91

85:                                               ; preds = %82
  %86 = load ptr, ptr %7, align 8, !tbaa !12
  store ptr %86, ptr %8, align 8, !tbaa !12
  %87 = load i64, ptr %5, align 8, !tbaa !14
  %88 = inttoptr i64 %87 to ptr
  %89 = load ptr, ptr %7, align 8, !tbaa !12
  %90 = getelementptr inbounds nuw %struct.redisObject, ptr %89, i32 0, i32 2
  store ptr %88, ptr %90, align 8, !tbaa !64
  br label %119

91:                                               ; preds = %82, %79, %76, %67, %62, %56
  %92 = load i64, ptr %5, align 8, !tbaa !14
  %93 = call ptr @createStringObjectFromLongLongForValue(i64 noundef %92)
  store ptr %93, ptr %8, align 8, !tbaa !12
  %94 = load ptr, ptr %7, align 8, !tbaa !12
  %95 = icmp ne ptr %94, null
  br i1 %95, label %96, label %107

96:                                               ; preds = %91
  %97 = load ptr, ptr %3, align 8, !tbaa !5
  %98 = getelementptr inbounds nuw %struct.client, ptr %97, i32 0, i32 8
  %99 = load ptr, ptr %98, align 8, !tbaa !18
  %100 = load ptr, ptr %3, align 8, !tbaa !5
  %101 = getelementptr inbounds nuw %struct.client, ptr %100, i32 0, i32 16
  %102 = load ptr, ptr %101, align 8, !tbaa !63
  %103 = getelementptr inbounds ptr, ptr %102, i64 1
  %104 = load ptr, ptr %103, align 8, !tbaa !12
  %105 = load ptr, ptr %8, align 8, !tbaa !12
  %106 = load ptr, ptr %9, align 8, !tbaa !16
  call void @dbReplaceValueWithDictEntry(ptr noundef %99, ptr noundef %104, ptr noundef %105, ptr noundef %106)
  br label %118

107:                                              ; preds = %91
  %108 = load ptr, ptr %3, align 8, !tbaa !5
  %109 = getelementptr inbounds nuw %struct.client, ptr %108, i32 0, i32 8
  %110 = load ptr, ptr %109, align 8, !tbaa !18
  %111 = load ptr, ptr %3, align 8, !tbaa !5
  %112 = getelementptr inbounds nuw %struct.client, ptr %111, i32 0, i32 16
  %113 = load ptr, ptr %112, align 8, !tbaa !63
  %114 = getelementptr inbounds ptr, ptr %113, i64 1
  %115 = load ptr, ptr %114, align 8, !tbaa !12
  %116 = load ptr, ptr %8, align 8, !tbaa !12
  %117 = call ptr @dbAdd(ptr noundef %110, ptr noundef %115, ptr noundef %116)
  br label %118

118:                                              ; preds = %107, %96
  br label %119

119:                                              ; preds = %118, %85
  %120 = load ptr, ptr %3, align 8, !tbaa !5
  %121 = load ptr, ptr %3, align 8, !tbaa !5
  %122 = getelementptr inbounds nuw %struct.client, ptr %121, i32 0, i32 8
  %123 = load ptr, ptr %122, align 8, !tbaa !18
  %124 = load ptr, ptr %3, align 8, !tbaa !5
  %125 = getelementptr inbounds nuw %struct.client, ptr %124, i32 0, i32 16
  %126 = load ptr, ptr %125, align 8, !tbaa !63
  %127 = getelementptr inbounds ptr, ptr %126, i64 1
  %128 = load ptr, ptr %127, align 8, !tbaa !12
  call void @signalModifiedKey(ptr noundef %120, ptr noundef %123, ptr noundef %128)
  %129 = load ptr, ptr %3, align 8, !tbaa !5
  %130 = getelementptr inbounds nuw %struct.client, ptr %129, i32 0, i32 16
  %131 = load ptr, ptr %130, align 8, !tbaa !63
  %132 = getelementptr inbounds ptr, ptr %131, i64 1
  %133 = load ptr, ptr %132, align 8, !tbaa !12
  %134 = load ptr, ptr %3, align 8, !tbaa !5
  %135 = getelementptr inbounds nuw %struct.client, ptr %134, i32 0, i32 8
  %136 = load ptr, ptr %135, align 8, !tbaa !18
  %137 = getelementptr inbounds nuw %struct.redisDb, ptr %136, i32 0, i32 7
  %138 = load i32, ptr %137, align 8, !tbaa !55
  call void @notifyKeyspaceEvent(i32 noundef 8, ptr noundef @.str.11, ptr noundef %133, i32 noundef %138)
  %139 = load i64, ptr getelementptr inbounds nuw (%struct.redisServer, ptr @server, i32 0, i32 227), align 8, !tbaa !35
  %140 = add nsw i64 %139, 1
  store i64 %140, ptr getelementptr inbounds nuw (%struct.redisServer, ptr @server, i32 0, i32 227), align 8, !tbaa !35
  %141 = load ptr, ptr %3, align 8, !tbaa !5
  %142 = load ptr, ptr %8, align 8, !tbaa !12
  call void @addReplyLongLongFromStr(ptr noundef %141, ptr noundef %142)
  store i32 0, ptr %10, align 4
  br label %143

143:                                              ; preds = %119, %54, %30, %24
  call void @llvm.lifetime.end.p0(i64 8, ptr %9) #10
  call void @llvm.lifetime.end.p0(i64 8, ptr %8) #10
  call void @llvm.lifetime.end.p0(i64 8, ptr %7) #10
  call void @llvm.lifetime.end.p0(i64 8, ptr %6) #10
  call void @llvm.lifetime.end.p0(i64 8, ptr %5) #10
  %144 = load i32, ptr %10, align 4
  switch i32 %144, label %146 [
    i32 0, label %145
    i32 1, label %145
  ]

145:                                              ; preds = %143, %143
  ret void

146:                                              ; preds = %143
  unreachable
}