; Function Attrs: nounwind uwtable
define dso_local void @incrDecrCommand(ptr noundef %0, i64 noundef %1) local_unnamed_addr #0 {
  %3 = alloca i64, align 8
  %4 = alloca ptr, align 8
  call void @llvm.lifetime.start.p0(i64 8, ptr nonnull %3) #11
  call void @llvm.lifetime.start.p0(i64 8, ptr nonnull %4) #11
  %5 = getelementptr inbounds nuw i8, ptr %0, i64 32
  %6 = load ptr, ptr %5, align 8, !tbaa !32
  %7 = getelementptr inbounds nuw i8, ptr %0, i64 96
  %8 = load ptr, ptr %7, align 8, !tbaa !9
  %9 = getelementptr inbounds nuw i8, ptr %8, i64 8
  %10 = load ptr, ptr %9, align 8, !tbaa !29
  %11 = call ptr @lookupKeyWriteWithDictEntry(ptr noundef %6, ptr noundef %10, ptr noundef nonnull %4) #11
  %12 = call i32 @checkType(ptr noundef %0, ptr noundef %11, i32 noundef 0) #11
  %.not = icmp eq i32 %12, 0
  br i1 %.not, label %13, label %67

13:                                               ; preds = %2
  %14 = call i32 @getLongLongFromObjectOrReply(ptr noundef nonnull %0, ptr noundef %11, ptr noundef nonnull %3, ptr noundef null) #11
  %.not47 = icmp eq i32 %14, 0
  br i1 %.not47, label %15, label %67

15:                                               ; preds = %13
  %16 = load i64, ptr %3, align 8, !tbaa !5
  %17 = icmp slt i64 %1, 0
  %18 = icmp slt i64 %16, 0
  %or.cond = select i1 %17, i1 %18, i1 false
  %19 = sub nsw i64 -9223372036854775808, %16
  %20 = icmp slt i64 %1, %19
  %or.cond50 = select i1 %or.cond, i1 %20, i1 false
  br i1 %or.cond50, label %26, label %21

21:                                               ; preds = %15
  %22 = icmp sgt i64 %1, 0
  %23 = icmp sgt i64 %16, 0
  %or.cond3 = select i1 %22, i1 %23, i1 false
  %24 = sub nuw nsw i64 9223372036854775807, %16
  %25 = icmp sgt i64 %1, %24
  %or.cond52 = select i1 %or.cond3, i1 %25, i1 false
  br i1 %or.cond52, label %26, label %27

26:                                               ; preds = %21, %15
  call void @addReplyError(ptr noundef nonnull %0, ptr noundef nonnull @.str.10) #11
  br label %67

27:                                               ; preds = %21
  %28 = add nsw i64 %16, %1
  store i64 %28, ptr %3, align 8, !tbaa !5
  %.not48 = icmp eq ptr %11, null
  br i1 %.not48, label %47, label %29

29:                                               ; preds = %27
  %30 = getelementptr inbounds nuw i8, ptr %11, i64 4
  %31 = load i32, ptr %30, align 4, !tbaa !83
  %32 = icmp eq i32 %31, 1
  br i1 %32, label %33, label %40

33:                                               ; preds = %29
  %34 = load i32, ptr %11, align 8
  %35 = and i32 %34, 240
  %36 = icmp eq i32 %35, 16
  %or.cond5 = icmp ugt i64 %28, 9999
  %or.cond53 = select i1 %36, i1 %or.cond5, i1 false
  br i1 %or.cond53, label %37, label %40

37:                                               ; preds = %33
  %38 = inttoptr i64 %28 to ptr
  %39 = getelementptr inbounds nuw i8, ptr %11, i64 8
  store ptr %38, ptr %39, align 8, !tbaa !60
  br label %54

40:                                               ; preds = %33, %29
  %41 = call ptr @createStringObjectFromLongLongForValue(i64 noundef %28) #11
  %42 = load ptr, ptr %5, align 8, !tbaa !32
  %43 = load ptr, ptr %7, align 8, !tbaa !9
  %44 = getelementptr inbounds nuw i8, ptr %43, i64 8
  %45 = load ptr, ptr %44, align 8, !tbaa !29
  %46 = load ptr, ptr %4, align 8, !tbaa !31
  call void @dbReplaceValueWithDictEntry(ptr noundef %42, ptr noundef %45, ptr noundef %41, ptr noundef %46) #11
  br label %54

47:                                               ; preds = %27
  %48 = call ptr @createStringObjectFromLongLongForValue(i64 noundef %28) #11
  %49 = load ptr, ptr %5, align 8, !tbaa !32
  %50 = load ptr, ptr %7, align 8, !tbaa !9
  %51 = getelementptr inbounds nuw i8, ptr %50, i64 8
  %52 = load ptr, ptr %51, align 8, !tbaa !29
  %53 = call ptr @dbAdd(ptr noundef %49, ptr noundef %52, ptr noundef %48) #11
  br label %54

54:                                               ; preds = %40, %47, %37
  %.0 = phi ptr [ %11, %37 ], [ %41, %40 ], [ %48, %47 ]
  %55 = load ptr, ptr %5, align 8, !tbaa !32
  %56 = load ptr, ptr %7, align 8, !tbaa !9
  %57 = getelementptr inbounds nuw i8, ptr %56, i64 8
  %58 = load ptr, ptr %57, align 8, !tbaa !29
  call void @signalModifiedKey(ptr noundef nonnull %0, ptr noundef %55, ptr noundef %58) #11
  %59 = load ptr, ptr %7, align 8, !tbaa !9
  %60 = getelementptr inbounds nuw i8, ptr %59, i64 8
  %61 = load ptr, ptr %60, align 8, !tbaa !29
  %62 = load ptr, ptr %5, align 8, !tbaa !32
  %63 = getelementptr inbounds nuw i8, ptr %62, i64 56
  %64 = load i32, ptr %63, align 8, !tbaa !54
  call void @notifyKeyspaceEvent(i32 noundef 8, ptr noundef nonnull @.str.11, ptr noundef %61, i32 noundef %64) #11
  %65 = load i64, ptr getelementptr inbounds nuw (i8, ptr @server, i64 6720), align 8, !tbaa !33
  %66 = add nsw i64 %65, 1
  store i64 %66, ptr getelementptr inbounds nuw (i8, ptr @server, i64 6720), align 8, !tbaa !33
  call void @addReplyLongLongFromStr(ptr noundef nonnull %0, ptr noundef %.0) #11
  br label %67

67:                                               ; preds = %13, %2, %54, %26
  call void @llvm.lifetime.end.p0(i64 8, ptr nonnull %4) #11
  call void @llvm.lifetime.end.p0(i64 8, ptr nonnull %3) #11
  ret void
}